target datalayout = "e-m:e-p270:32:32-p271:32:32-p272:64:64-i64:64-i128:128-f80:128-n8:16:32:64-S128"
target triple = "x86_64-unknown-linux-gnu"

%"class.boost::shared_ptr" = type { ptr, %"class.boost::detail::shared_count" }
%"class.boost::detail::shared_count" = type { ptr }
%"class.QuantLib::NoArbSabrModel" = type { double, double, double, double, double, double, double, double, double, double, double, double, %"class.boost::shared_ptr" }
%"class.std::function" = type { %"class.std::_Function_base", ptr }
%"class.std::_Function_base" = type { %"union.std::_Any_data", ptr }
%"union.std::_Any_data" = type { %"union.std::_Nocopy_types" }
%"union.std::_Nocopy_types" = type { { i64, i64 } }
%"class.QuantLib::NoArbSabrModel::p_integrand" = type { ptr }

@.str.37 = private unnamed_addr constant [8 x i8] c"px != 0\00", align 1
@__PRETTY_FUNCTION__._ZNK5boost10shared_ptrIN8QuantLib20GaussLobattoIntegralEEdeEv = private unnamed_addr constant [154 x i8] c"typename boost::detail::sp_dereference<T>::type boost::shared_ptr<QuantLib::GaussLobattoIntegral>::operator*() const [T = QuantLib::GaussLobattoIntegral]\00", align 1
@.str.38 = private unnamed_addr constant [102 x i8] c"generated/home/dtcxzyw/WorkSpace/SDK/vcpkg/installed/x64-linux/include/boost/smart_ptr/shared_ptr.hpp\00", align 1

; Function Attrs: mustprogress nounwind uwtable
define linkonce_odr noundef ptr @_ZNSt9_Any_data9_M_accessEv(ptr noundef nonnull align 8 dereferenceable(16) %this) #1 comdat align 2 {
entry:
  %this.addr = alloca ptr, align 8
  store ptr %this, ptr %this.addr, align 8, !tbaa !3
  %this1 = load ptr, ptr %this.addr, align 8
  %arrayidx = getelementptr inbounds [16 x i8], ptr %this1, i64 0, i64 0
  ret ptr %arrayidx
}

; Function Attrs: mustprogress nounwind uwtable
define linkonce_odr void @_ZNSt14_Function_base13_Base_managerIN8QuantLib14NoArbSabrModel11p_integrandEE9_M_createIS3_EEvRSt9_Any_dataOT_St17integral_constantIbLb1EE(ptr noundef nonnull align 8 dereferenceable(16) %__dest, ptr noundef nonnull align 8 dereferenceable(8) %__f) #1 comdat align 2 {
entry:
  %__dest.addr = alloca ptr, align 8
  %__f.addr = alloca ptr, align 8
  store ptr %__dest, ptr %__dest.addr, align 8, !tbaa !3
  store ptr %__f, ptr %__f.addr, align 8, !tbaa !3
  %0 = load ptr, ptr %__dest.addr, align 8, !tbaa !3
  %call = call noundef ptr @_ZNSt9_Any_data9_M_accessEv(ptr noundef nonnull align 8 dereferenceable(16) %0) #24
  %1 = load ptr, ptr %__f.addr, align 8, !tbaa !3
  call void @llvm.memcpy.p0.p0.i64(ptr align 8 %call, ptr align 8 %1, i64 8, i1 false), !tbaa.struct !84
  ret void
}

; Function Attrs: mustprogress nounwind uwtable
define linkonce_odr void @_ZNSt14_Function_base13_Base_managerIN8QuantLib14NoArbSabrModel11p_integrandEE15_M_init_functorIS3_EEvRSt9_Any_dataOT_(ptr noundef nonnull align 8 dereferenceable(16) %__functor, ptr noundef nonnull align 8 dereferenceable(8) %__f) #1 comdat align 2 personality ptr @__gxx_personality_v0 {
entry:
  %__functor.addr = alloca ptr, align 8
  %__f.addr = alloca ptr, align 8
  store ptr %__functor, ptr %__functor.addr, align 8, !tbaa !3
  store ptr %__f, ptr %__f.addr, align 8, !tbaa !3
  %0 = load ptr, ptr %__functor.addr, align 8, !tbaa !3
  %1 = load ptr, ptr %__f.addr, align 8, !tbaa !3
  invoke void @_ZNSt14_Function_base13_Base_managerIN8QuantLib14NoArbSabrModel11p_integrandEE9_M_createIS3_EEvRSt9_Any_dataOT_St17integral_constantIbLb1EE(ptr noundef nonnull align 8 dereferenceable(16) %0, ptr noundef nonnull align 8 dereferenceable(8) %1)
          to label %invoke.cont unwind label %terminate.lpad

invoke.cont:                                      ; preds = %entry
  ret void

terminate.lpad:                                   ; preds = %entry
  %2 = landingpad { ptr, i32 }
          catch ptr null
  %3 = extractvalue { ptr, i32 } %2, 0
  call void @__clang_call_terminate(ptr %3) #26
  unreachable
}

; Function Attrs: mustprogress nounwind uwtable
define linkonce_odr noundef zeroext i1 @_ZNSt14_Function_base13_Base_managerIN8QuantLib14NoArbSabrModel11p_integrandEE21_M_not_empty_functionIS3_EEbRKT_(ptr noundef nonnull align 8 dereferenceable(8) %0) #1 comdat align 2 {
entry:
  %.addr = alloca ptr, align 8
  store ptr %0, ptr %.addr, align 8, !tbaa !3
  ret i1 true
}

; Function Attrs: mustprogress nounwind uwtable
define linkonce_odr void @_ZNSt14_Function_baseC2Ev(ptr noundef nonnull align 8 dereferenceable(24) %this) unnamed_addr #1 comdat align 2 {
entry:
  %this.addr = alloca ptr, align 8
  store ptr %this, ptr %this.addr, align 8, !tbaa !3
  %this1 = load ptr, ptr %this.addr, align 8
  %_M_functor = getelementptr inbounds nuw %"class.std::_Function_base", ptr %this1, i32 0, i32 0
  store ptr null, ptr %_M_functor, align 8, !tbaa !74
  %_M_manager = getelementptr inbounds nuw %"class.std::_Function_base", ptr %this1, i32 0, i32 1
  store ptr null, ptr %_M_manager, align 8, !tbaa !67
  ret void
}

; Function Attrs: mustprogress nounwind uwtable
define linkonce_odr void @_ZNSt14_Function_baseD2Ev(ptr noundef nonnull align 8 dereferenceable(24) %this) unnamed_addr #1 comdat align 2 personality ptr @__gxx_personality_v0 {
entry:
  %this.addr = alloca ptr, align 8
  store ptr %this, ptr %this.addr, align 8, !tbaa !3
  %this1 = load ptr, ptr %this.addr, align 8
  %_M_manager = getelementptr inbounds nuw %"class.std::_Function_base", ptr %this1, i32 0, i32 1
  %0 = load ptr, ptr %_M_manager, align 8, !tbaa !67
  %tobool = icmp ne ptr %0, null
  br i1 %tobool, label %if.then, label %if.end

if.then:                                          ; preds = %entry
  %_M_manager2 = getelementptr inbounds nuw %"class.std::_Function_base", ptr %this1, i32 0, i32 1
  %1 = load ptr, ptr %_M_manager2, align 8, !tbaa !67
  %_M_functor = getelementptr inbounds nuw %"class.std::_Function_base", ptr %this1, i32 0, i32 0
  %_M_functor3 = getelementptr inbounds nuw %"class.std::_Function_base", ptr %this1, i32 0, i32 0
  %call = invoke noundef zeroext i1 %1(ptr noundef nonnull align 8 dereferenceable(16) %_M_functor, ptr noundef nonnull align 8 dereferenceable(16) %_M_functor3, i32 noundef 3)
          to label %invoke.cont unwind label %terminate.lpad

invoke.cont:                                      ; preds = %if.then
  br label %if.end

if.end:                                           ; preds = %invoke.cont, %entry
  ret void

terminate.lpad:                                   ; preds = %if.then
  %2 = landingpad { ptr, i32 }
          catch ptr null
  %3 = extractvalue { ptr, i32 } %2, 0
  call void @__clang_call_terminate(ptr %3) #26
  unreachable
}

; Function Attrs: mustprogress nounwind uwtable
define linkonce_odr void @_ZNSt8functionIFddEEC2IN8QuantLib14NoArbSabrModel11p_integrandEvEEOT_(ptr noundef nonnull align 8 dereferenceable(32) %this, ptr noundef nonnull align 8 dereferenceable(8) %__f) unnamed_addr #1 comdat align 2 {
entry:
  %this.addr = alloca ptr, align 8
  %__f.addr = alloca ptr, align 8
  store ptr %this, ptr %this.addr, align 8, !tbaa !3
  store ptr %__f, ptr %__f.addr, align 8, !tbaa !3
  %this1 = load ptr, ptr %this.addr, align 8
  %0 = getelementptr inbounds i8, ptr %this1, i64 0
  call void @llvm.memset.p0.i64(ptr align 8 %0, i8 0, i64 24, i1 false)
  call void @_ZNSt14_Function_baseC2Ev(ptr noundef nonnull align 8 dereferenceable(24) %this1) #24
  %_M_invoker = getelementptr inbounds nuw %"class.std::function", ptr %this1, i32 0, i32 1
  store ptr null, ptr %_M_invoker, align 8, !tbaa !64
  %1 = load ptr, ptr %__f.addr, align 8, !tbaa !3
  %call = call noundef zeroext i1 @_ZNSt14_Function_base13_Base_managerIN8QuantLib14NoArbSabrModel11p_integrandEE21_M_not_empty_functionIS3_EEbRKT_(ptr noundef nonnull align 8 dereferenceable(8) %1) #24
  br i1 %call, label %if.then, label %if.end

if.then:                                          ; preds = %entry
  %_M_functor = getelementptr inbounds nuw %"class.std::_Function_base", ptr %this1, i32 0, i32 0
  %2 = load ptr, ptr %__f.addr, align 8, !tbaa !3
  call void @_ZNSt14_Function_base13_Base_managerIN8QuantLib14NoArbSabrModel11p_integrandEE15_M_init_functorIS3_EEvRSt9_Any_dataOT_(ptr noundef nonnull align 8 dereferenceable(16) %_M_functor, ptr noundef nonnull align 8 dereferenceable(8) %2) #24
  %_M_invoker2 = getelementptr inbounds nuw %"class.std::function", ptr %this1, i32 0, i32 1
  store ptr @_ZNSt17_Function_handlerIFddEN8QuantLib14NoArbSabrModel11p_integrandEE9_M_invokeERKSt9_Any_dataOd, ptr %_M_invoker2, align 8, !tbaa !64
  %_M_manager = getelementptr inbounds nuw %"class.std::_Function_base", ptr %this1, i32 0, i32 1
  store ptr @_ZNSt17_Function_handlerIFddEN8QuantLib14NoArbSabrModel11p_integrandEE10_M_managerERSt9_Any_dataRKS5_St18_Manager_operation, ptr %_M_manager, align 8, !tbaa !67
  br label %if.end

if.end:                                           ; preds = %if.then, %entry
  ret void
}

; Function Attrs: mustprogress nounwind uwtable
define linkonce_odr void @_ZN8QuantLib14NoArbSabrModel11p_integrandC2EPKS0_(ptr noundef nonnull align 8 dereferenceable(8) %this, ptr noundef %model) unnamed_addr #1 comdat align 2 {
entry:
  %this.addr = alloca ptr, align 8
  %model.addr = alloca ptr, align 8
  store ptr %this, ptr %this.addr, align 8, !tbaa !3
  store ptr %model, ptr %model.addr, align 8, !tbaa !3
  %this1 = load ptr, ptr %this.addr, align 8
  %model2 = getelementptr inbounds nuw %"class.QuantLib::NoArbSabrModel::p_integrand", ptr %this1, i32 0, i32 0
  %0 = load ptr, ptr %model.addr, align 8, !tbaa !3
  store ptr %0, ptr %model2, align 8, !tbaa !68
  ret void
}

; Function Attrs: mustprogress uwtable
define linkonce_odr noundef nonnull align 8 dereferenceable(49) ptr @_ZNK5boost10shared_ptrIN8QuantLib20GaussLobattoIntegralEEdeEv(ptr noundef nonnull align 8 dereferenceable(16) %this) #0 comdat align 2 {
entry:
  %this.addr = alloca ptr, align 8
  store ptr %this, ptr %this.addr, align 8, !tbaa !3
  %this1 = load ptr, ptr %this.addr, align 8
  %px = getelementptr inbounds nuw %"class.boost::shared_ptr", ptr %this1, i32 0, i32 0
  %0 = load ptr, ptr %px, align 8, !tbaa !30
  %cmp = icmp ne ptr %0, null
  %lnot = xor i1 %cmp, true
  %lnot2 = xor i1 %lnot, true
  %conv = zext i1 %lnot2 to i64
  %expval = call i64 @llvm.expect.i64(i64 %conv, i64 1)
  %tobool = icmp ne i64 %expval, 0
  br i1 %tobool, label %cond.true, label %cond.false

cond.true:                                        ; preds = %entry
  br label %cond.end

cond.false:                                       ; preds = %entry
  call void @_ZN5boost16assertion_failedEPKcS1_S1_l(ptr noundef @.str.37, ptr noundef @__PRETTY_FUNCTION__._ZNK5boost10shared_ptrIN8QuantLib20GaussLobattoIntegralEEdeEv, ptr noundef @.str.38, i64 noundef 778)
  br label %cond.end

cond.end:                                         ; preds = %cond.false, %cond.true
  %px3 = getelementptr inbounds nuw %"class.boost::shared_ptr", ptr %this1, i32 0, i32 0
  %1 = load ptr, ptr %px3, align 8, !tbaa !30
  ret ptr %1
}

; Function Attrs: mustprogress uwtable
define noundef double @_ZNK8QuantLib14NoArbSabrModel12forwardErrorEd(ptr noundef nonnull align 8 dereferenceable(112) %this, double noundef %forward) #0 align 2 personality ptr @__gxx_personality_v0 {
entry:
  %this.addr = alloca ptr, align 8
  %forward.addr = alloca double, align 8
  %ref.tmp = alloca %"class.std::function", align 8
  %ref.tmp2 = alloca %"class.QuantLib::NoArbSabrModel::p_integrand", align 8
  %exn.slot = alloca ptr, align 8
  %ehselector.slot = alloca i32, align 4
  store ptr %this, ptr %this.addr, align 8, !tbaa !3
  store double %forward, ptr %forward.addr, align 8, !tbaa !7
  %this1 = load ptr, ptr %this.addr, align 8
  %0 = load double, ptr %forward.addr, align 8, !tbaa !7
  %1 = load double, ptr %forward.addr, align 8, !tbaa !7
  %2 = call double @llvm.fmuladd.f64(double %0, double %1, double 0x3EB0C6F7A0B5ED8D)
  %forward_ = getelementptr inbounds nuw %"class.QuantLib::NoArbSabrModel", ptr %this1, i32 0, i32 9
  store double %2, ptr %forward_, align 8, !tbaa !18
  %integrator_ = getelementptr inbounds nuw %"class.QuantLib::NoArbSabrModel", ptr %this1, i32 0, i32 12
  %call = call noundef nonnull align 8 dereferenceable(49) ptr @_ZNK5boost10shared_ptrIN8QuantLib20GaussLobattoIntegralEEdeEv(ptr noundef nonnull align 8 dereferenceable(16) %integrator_)
  call void @llvm.lifetime.start.p0(i64 32, ptr %ref.tmp) #24
  call void @llvm.lifetime.start.p0(i64 8, ptr %ref.tmp2) #24
  call void @_ZN8QuantLib14NoArbSabrModel11p_integrandC2EPKS0_(ptr noundef nonnull align 8 dereferenceable(8) %ref.tmp2, ptr noundef %this1)
  call void @_ZNSt8functionIFddEEC2IN8QuantLib14NoArbSabrModel11p_integrandEvEEOT_(ptr noundef nonnull align 8 dereferenceable(32) %ref.tmp, ptr noundef nonnull align 8 dereferenceable(8) %ref.tmp2) #24
  %fmin_ = getelementptr inbounds nuw %"class.QuantLib::NoArbSabrModel", ptr %this1, i32 0, i32 7
  %3 = load double, ptr %fmin_, align 8, !tbaa !23
  %fmax_ = getelementptr inbounds nuw %"class.QuantLib::NoArbSabrModel", ptr %this1, i32 0, i32 8
  %4 = load double, ptr %fmax_, align 8, !tbaa !22
  %call3 = invoke noundef double @_ZNK8QuantLib10IntegratorclERKSt8functionIFddEEdd(ptr noundef nonnull align 8 dereferenceable(40) %call, ptr noundef nonnull align 8 dereferenceable(32) %ref.tmp, double noundef %3, double noundef %4)
          to label %invoke.cont unwind label %lpad

invoke.cont:                                      ; preds = %entry
  %numericalIntegralOverP_ = getelementptr inbounds nuw %"class.QuantLib::NoArbSabrModel", ptr %this1, i32 0, i32 10
  store double %call3, ptr %numericalIntegralOverP_, align 8, !tbaa !60
  call void @_ZNSt14_Function_baseD2Ev(ptr noundef nonnull align 8 dereferenceable(32) %ref.tmp) #24
  call void @llvm.lifetime.end.p0(i64 8, ptr %ref.tmp2) #24
  call void @llvm.lifetime.end.p0(i64 32, ptr %ref.tmp) #24
  %call4 = call noundef double @_ZNK8QuantLib14NoArbSabrModel11optionPriceEd(ptr noundef nonnull align 8 dereferenceable(112) %this1, double noundef 0.000000e+00)
  %externalForward_ = getelementptr inbounds nuw %"class.QuantLib::NoArbSabrModel", ptr %this1, i32 0, i32 1
  %5 = load double, ptr %externalForward_, align 8, !tbaa !13
  %sub = fsub double %call4, %5
  ret double %sub

lpad:                                             ; preds = %entry
  %6 = landingpad { ptr, i32 }
          cleanup
  %7 = extractvalue { ptr, i32 } %6, 0
  store ptr %7, ptr %exn.slot, align 8
  %8 = extractvalue { ptr, i32 } %6, 1
  store i32 %8, ptr %ehselector.slot, align 4
  call void @_ZNSt14_Function_baseD2Ev(ptr noundef nonnull align 8 dereferenceable(32) %ref.tmp) #24
  call void @llvm.lifetime.end.p0(i64 8, ptr %ref.tmp2) #24
  call void @llvm.lifetime.end.p0(i64 32, ptr %ref.tmp) #24
  br label %eh.resume

eh.resume:                                        ; preds = %lpad
  %exn = load ptr, ptr %exn.slot, align 8
  %sel = load i32, ptr %ehselector.slot, align 4
  %lpad.val = insertvalue { ptr, i32 } poison, ptr %exn, 0
  %lpad.val5 = insertvalue { ptr, i32 } %lpad.val, i32 %sel, 1
  resume { ptr, i32 } %lpad.val5
}