; Function Attrs: mustprogress uwtable
define noundef double @_ZNK8QuantLib14NoArbSabrModel12forwardErrorEd(ptr noundef nonnull align 8 dereferenceable(112) %this, double noundef %forward) local_unnamed_addr #0 align 2 personality ptr @__gxx_personality_v0 {
entry:
  %ref.tmp = alloca %"class.std::function", align 8
  %0 = tail call double @llvm.fmuladd.f64(double %forward, double %forward, double 0x3EB0C6F7A0B5ED8D)
  %forward_ = getelementptr inbounds nuw i8, ptr %this, i64 72
  store double %0, ptr %forward_, align 8, !tbaa !16
  %integrator_ = getelementptr inbounds nuw i8, ptr %this, i64 96
  %1 = load ptr, ptr %integrator_, align 8, !tbaa !31
  %cmp.not.i = icmp eq ptr %1, null
  br i1 %cmp.not.i, label %cond.false.i, label %_ZNK5boost10shared_ptrIN8QuantLib20GaussLobattoIntegralEEdeEv.exit, !prof !91

cond.false.i:                                     ; preds = %entry
  tail call void @_ZN5boost16assertion_failedEPKcS1_S1_l(ptr noundef nonnull @.str.37, ptr noundef nonnull @__PRETTY_FUNCTION__._ZNK5boost10shared_ptrIN8QuantLib20GaussLobattoIntegralEEdeEv, ptr noundef nonnull @.str.38, i64 noundef 778)
  %.pre.i = load ptr, ptr %integrator_, align 8, !tbaa !31
  br label %_ZNK5boost10shared_ptrIN8QuantLib20GaussLobattoIntegralEEdeEv.exit

_ZNK5boost10shared_ptrIN8QuantLib20GaussLobattoIntegralEEdeEv.exit: ; preds = %entry, %cond.false.i
  %2 = phi ptr [ %1, %entry ], [ %.pre.i, %cond.false.i ]
  call void @llvm.lifetime.start.p0(i64 32, ptr nonnull %ref.tmp) #32
  %_M_manager.i.i = getelementptr inbounds nuw i8, ptr %ref.tmp, i64 16
  %_M_invoker.i = getelementptr inbounds nuw i8, ptr %ref.tmp, i64 24
  %3 = getelementptr inbounds i8, ptr %ref.tmp, i64 8
  store i64 0, ptr %3, align 8
  %4 = ptrtoint ptr %this to i64
  store i64 %4, ptr %ref.tmp, align 8, !tbaa !33
  store ptr @_ZNSt17_Function_handlerIFddEN8QuantLib14NoArbSabrModel11p_integrandEE9_M_invokeERKSt9_Any_dataOd, ptr %_M_invoker.i, align 8, !tbaa !92
  store ptr @_ZNSt17_Function_handlerIFddEN8QuantLib14NoArbSabrModel11p_integrandEE10_M_managerERSt9_Any_dataRKS5_St18_Manager_operation, ptr %_M_manager.i.i, align 8, !tbaa !95
  %fmin_ = getelementptr inbounds nuw i8, ptr %this, i64 56
  %5 = load double, ptr %fmin_, align 8, !tbaa !27
  %fmax_ = getelementptr inbounds nuw i8, ptr %this, i64 64
  %6 = load double, ptr %fmax_, align 8, !tbaa !26
  %call3 = invoke noundef double @_ZNK8QuantLib10IntegratorclERKSt8functionIFddEEdd(ptr noundef nonnull align 8 dereferenceable(40) %2, ptr noundef nonnull align 8 dereferenceable(32) %ref.tmp, double noundef %5, double noundef %6)
          to label %invoke.cont unwind label %lpad

invoke.cont:                                      ; preds = %_ZNK5boost10shared_ptrIN8QuantLib20GaussLobattoIntegralEEdeEv.exit
  %numericalIntegralOverP_ = getelementptr inbounds nuw i8, ptr %this, i64 80
  store double %call3, ptr %numericalIntegralOverP_, align 8, !tbaa !96
  %7 = load ptr, ptr %_M_manager.i.i, align 8, !tbaa !95
  %tobool.not.i = icmp eq ptr %7, null
  br i1 %tobool.not.i, label %_ZNSt14_Function_baseD2Ev.exit, label %if.then.i

if.then.i:                                        ; preds = %invoke.cont
  %call.i = invoke noundef zeroext i1 %7(ptr noundef nonnull align 8 dereferenceable(16) %ref.tmp, ptr noundef nonnull align 8 dereferenceable(16) %ref.tmp, i32 noundef 3)
          to label %_ZNSt14_Function_baseD2Ev.exit unwind label %terminate.lpad.i

terminate.lpad.i:                                 ; preds = %if.then.i
  %8 = landingpad { ptr, i32 }
          catch ptr null
  %9 = extractvalue { ptr, i32 } %8, 0
  call void @__clang_call_terminate(ptr %9) #35
  unreachable

_ZNSt14_Function_baseD2Ev.exit:                   ; preds = %invoke.cont, %if.then.i
  call void @llvm.lifetime.end.p0(i64 32, ptr nonnull %ref.tmp) #32
  %call4 = call noundef double @_ZNK8QuantLib14NoArbSabrModel11optionPriceEd(ptr noundef nonnull align 8 dereferenceable(112) %this, double noundef 0.000000e+00)
  %externalForward_ = getelementptr inbounds nuw i8, ptr %this, i64 8
  %10 = load double, ptr %externalForward_, align 8, !tbaa !11
  %sub = fsub double %call4, %10
  ret double %sub

lpad:                                             ; preds = %_ZNK5boost10shared_ptrIN8QuantLib20GaussLobattoIntegralEEdeEv.exit
  %11 = landingpad { ptr, i32 }
          cleanup
  %12 = load ptr, ptr %_M_manager.i.i, align 8, !tbaa !95
  %tobool.not.i3 = icmp eq ptr %12, null
  br i1 %tobool.not.i3, label %_ZNSt14_Function_baseD2Ev.exit7, label %if.then.i4

if.then.i4:                                       ; preds = %lpad
  %call.i5 = invoke noundef zeroext i1 %12(ptr noundef nonnull align 8 dereferenceable(16) %ref.tmp, ptr noundef nonnull align 8 dereferenceable(16) %ref.tmp, i32 noundef 3)
          to label %_ZNSt14_Function_baseD2Ev.exit7 unwind label %terminate.lpad.i6

terminate.lpad.i6:                                ; preds = %if.then.i4
  %13 = landingpad { ptr, i32 }
          catch ptr null
  %14 = extractvalue { ptr, i32 } %13, 0
  call void @__clang_call_terminate(ptr %14) #35
  unreachable

_ZNSt14_Function_baseD2Ev.exit7:                  ; preds = %lpad, %if.then.i4
  call void @llvm.lifetime.end.p0(i64 32, ptr nonnull %ref.tmp) #32
  resume { ptr, i32 } %11
}